target datalayout = "e-m:e-p270:32:32-p271:32:32-p272:64:64-i64:64-i128:128-f80:128-n8:16:32:64-S128"
target triple = "x86_64-pc-linux-gnu"

%"class.ue2::CharReach" = type { %"class.ue2::bitfield" }
%"class.ue2::bitfield" = type { %"struct.std::array" }
%"struct.std::array" = type { [4 x i64] }

; Function Attrs: inlinehint mustprogress nounwind uwtable
define linkonce_odr dso_local noundef i32 @_ZSt8__memcmpIyyEiPKT_PKT0_m(ptr noundef %0, ptr noundef %1, i64 noundef %2) #3 comdat {
  %4 = alloca ptr, align 8
  %5 = alloca ptr, align 8
  %6 = alloca i64, align 8
  store ptr %0, ptr %4, align 8
  store ptr %1, ptr %5, align 8
  store i64 %2, ptr %6, align 8
  %7 = load ptr, ptr %4, align 8
  %8 = load ptr, ptr %5, align 8
  %9 = load i64, ptr %6, align 8
  %10 = mul i64 8, %9
  %11 = call i32 @memcmp(ptr noundef %7, ptr noundef %8, i64 noundef %10) #15
  ret i32 %11
}

; Function Attrs: mustprogress uwtable
define linkonce_odr dso_local noundef zeroext i1 @_ZNSt7__equalILb1EE5equalIyEEbPKT_S4_S4_(ptr noundef %0, ptr noundef %1, ptr noundef %2) #0 comdat align 2 {
  %4 = alloca i1, align 1
  %5 = alloca ptr, align 8
  %6 = alloca ptr, align 8
  %7 = alloca ptr, align 8
  %8 = alloca i64, align 8
  %9 = alloca i32, align 4
  store ptr %0, ptr %5, align 8
  store ptr %1, ptr %6, align 8
  store ptr %2, ptr %7, align 8
  call void @llvm.lifetime.start.p0(i64 8, ptr %8) #15
  %10 = load ptr, ptr %6, align 8
  %11 = load ptr, ptr %5, align 8
  %12 = ptrtoint ptr %10 to i64
  %13 = ptrtoint ptr %11 to i64
  %14 = sub i64 %12, %13
  %15 = sdiv exact i64 %14, 8
  store i64 %15, ptr %8, align 8
  %16 = load i64, ptr %8, align 8
  %17 = icmp ne i64 %16, 0
  br i1 %17, label %18, label %25

18:                                               ; preds = %3
  %19 = load ptr, ptr %5, align 8
  %20 = load ptr, ptr %7, align 8
  %21 = load i64, ptr %8, align 8
  %22 = call noundef i32 @_ZSt8__memcmpIyyEiPKT_PKT0_m(ptr noundef %19, ptr noundef %20, i64 noundef %21)
  %23 = icmp ne i32 %22, 0
  %24 = xor i1 %23, true
  store i1 %24, ptr %4, align 1
  store i32 1, ptr %9, align 4
  br label %26

25:                                               ; preds = %3
  store i32 0, ptr %9, align 4
  br label %26

26:                                               ; preds = %25, %18
  call void @llvm.lifetime.end.p0(i64 8, ptr %8) #15
  %27 = load i32, ptr %9, align 4
  switch i32 %27, label %31 [
    i32 0, label %28
    i32 1, label %29
  ]

28:                                               ; preds = %26
  store i1 true, ptr %4, align 1
  br label %29

29:                                               ; preds = %28, %26
  %30 = load i1, ptr %4, align 1
  ret i1 %30

31:                                               ; preds = %26
  unreachable
}

; Function Attrs: inlinehint mustprogress uwtable
define linkonce_odr dso_local noundef zeroext i1 @_ZSt12__equal_aux1IPKyS1_EbT_S2_T0_(ptr noundef %0, ptr noundef %1, ptr noundef %2) #5 comdat {
  %4 = alloca ptr, align 8
  %5 = alloca ptr, align 8
  %6 = alloca ptr, align 8
  %7 = alloca i8, align 1
  store ptr %0, ptr %4, align 8
  store ptr %1, ptr %5, align 8
  store ptr %2, ptr %6, align 8
  call void @llvm.lifetime.start.p0(i64 1, ptr %7) #15
  store i8 1, ptr %7, align 1
  %8 = load ptr, ptr %4, align 8
  %9 = load ptr, ptr %5, align 8
  %10 = load ptr, ptr %6, align 8
  %11 = call noundef zeroext i1 @_ZNSt7__equalILb1EE5equalIyEEbPKT_S4_S4_(ptr noundef %8, ptr noundef %9, ptr noundef %10)
  call void @llvm.lifetime.end.p0(i64 1, ptr %7) #15
  ret i1 %11
}

; Function Attrs: inlinehint mustprogress nounwind uwtable
define linkonce_odr dso_local noundef ptr @_ZSt12__niter_baseIPKyET_S2_(ptr noundef %0) #3 comdat {
  %2 = alloca ptr, align 8
  store ptr %0, ptr %2, align 8
  %3 = load ptr, ptr %2, align 8
  ret ptr %3
}

; Function Attrs: mustprogress nounwind uwtable
define linkonce_odr dso_local noundef ptr @_ZNSt14__array_traitsIyLm4EE6_S_ptrERA4_Ky(ptr noundef nonnull align 8 dereferenceable(32) %0) #2 comdat align 2 {
  %2 = alloca ptr, align 8
  store ptr %0, ptr %2, align 8
  %3 = load ptr, ptr %2, align 8
  %4 = getelementptr inbounds [4 x i64], ptr %3, i64 0, i64 0
  ret ptr %4
}

; Function Attrs: inlinehint mustprogress uwtable
define linkonce_odr dso_local noundef zeroext i1 @_ZSt11__equal_auxIPKyS1_EbT_S2_T0_(ptr noundef %0, ptr noundef %1, ptr noundef %2) #5 comdat {
  %4 = alloca ptr, align 8
  %5 = alloca ptr, align 8
  %6 = alloca ptr, align 8
  store ptr %0, ptr %4, align 8
  store ptr %1, ptr %5, align 8
  store ptr %2, ptr %6, align 8
  %7 = load ptr, ptr %4, align 8
  %8 = call noundef ptr @_ZSt12__niter_baseIPKyET_S2_(ptr noundef %7) #15
  %9 = load ptr, ptr %5, align 8
  %10 = call noundef ptr @_ZSt12__niter_baseIPKyET_S2_(ptr noundef %9) #15
  %11 = load ptr, ptr %6, align 8
  %12 = call noundef ptr @_ZSt12__niter_baseIPKyET_S2_(ptr noundef %11) #15
  %13 = call noundef zeroext i1 @_ZSt12__equal_aux1IPKyS1_EbT_S2_T0_(ptr noundef %8, ptr noundef %10, ptr noundef %12)
  ret i1 %13
}

; Function Attrs: mustprogress nounwind uwtable
define linkonce_odr dso_local noundef ptr @_ZNKSt5arrayIyLm4EE4dataEv(ptr noundef nonnull align 8 dereferenceable(32) %0) #2 comdat align 2 {
  %2 = alloca ptr, align 8
  store ptr %0, ptr %2, align 8
  %3 = load ptr, ptr %2, align 8
  %4 = getelementptr inbounds nuw %"struct.std::array", ptr %3, i32 0, i32 0
  %5 = call noundef ptr @_ZNSt14__array_traitsIyLm4EE6_S_ptrERA4_Ky(ptr noundef nonnull align 8 dereferenceable(32) %4) #15
  ret ptr %5
}

; Function Attrs: mustprogress nounwind uwtable
define linkonce_odr dso_local noundef nonnull align 8 dereferenceable(8) ptr @_ZNSt14__array_traitsIyLm4EE6_S_refERA4_Kym(ptr noundef nonnull align 8 dereferenceable(32) %0, i64 noundef %1) #2 comdat align 2 {
  %3 = alloca ptr, align 8
  %4 = alloca i64, align 8
  store ptr %0, ptr %3, align 8
  store i64 %1, ptr %4, align 8
  %5 = load ptr, ptr %3, align 8
  %6 = load i64, ptr %4, align 8
  %7 = getelementptr inbounds nuw [4 x i64], ptr %5, i64 0, i64 %6
  ret ptr %7
}

; Function Attrs: inlinehint mustprogress uwtable
define linkonce_odr dso_local noundef zeroext i1 @_ZSt5equalIPKyS1_EbT_S2_T0_(ptr noundef %0, ptr noundef %1, ptr noundef %2) #5 comdat {
  %4 = alloca ptr, align 8
  %5 = alloca ptr, align 8
  %6 = alloca ptr, align 8
  store ptr %0, ptr %4, align 8
  store ptr %1, ptr %5, align 8
  store ptr %2, ptr %6, align 8
  %7 = load ptr, ptr %4, align 8
  %8 = load ptr, ptr %5, align 8
  %9 = load ptr, ptr %6, align 8
  %10 = call noundef zeroext i1 @_ZSt11__equal_auxIPKyS1_EbT_S2_T0_(ptr noundef %7, ptr noundef %8, ptr noundef %9)
  ret i1 %10
}

; Function Attrs: mustprogress nounwind uwtable
define linkonce_odr dso_local noundef ptr @_ZNKSt5arrayIyLm4EE3endEv(ptr noundef nonnull align 8 dereferenceable(32) %0) #2 comdat align 2 {
  %2 = alloca ptr, align 8
  store ptr %0, ptr %2, align 8
  %3 = load ptr, ptr %2, align 8
  %4 = call noundef ptr @_ZNKSt5arrayIyLm4EE4dataEv(ptr noundef nonnull align 8 dereferenceable(32) %3) #15
  %5 = getelementptr inbounds nuw i64, ptr %4, i64 4
  ret ptr %5
}

; Function Attrs: mustprogress nounwind uwtable
define linkonce_odr dso_local noundef ptr @_ZNKSt5arrayIyLm4EE5beginEv(ptr noundef nonnull align 8 dereferenceable(32) %0) #2 comdat align 2 {
  %2 = alloca ptr, align 8
  store ptr %0, ptr %2, align 8
  %3 = load ptr, ptr %2, align 8
  %4 = call noundef ptr @_ZNKSt5arrayIyLm4EE4dataEv(ptr noundef nonnull align 8 dereferenceable(32) %3) #15
  ret ptr %4
}

; Function Attrs: mustprogress nounwind uwtable
define linkonce_odr dso_local noundef nonnull align 8 dereferenceable(8) ptr @_ZNSt5arrayIyLm4EEixEm(ptr noundef nonnull align 8 dereferenceable(32) %0, i64 noundef %1) #2 comdat align 2 {
  %3 = alloca ptr, align 8
  %4 = alloca i64, align 8
  store ptr %0, ptr %3, align 8
  store i64 %1, ptr %4, align 8
  %5 = load ptr, ptr %3, align 8
  %6 = getelementptr inbounds nuw %"struct.std::array", ptr %5, i32 0, i32 0
  %7 = load i64, ptr %4, align 8
  %8 = call noundef nonnull align 8 dereferenceable(8) ptr @_ZNSt14__array_traitsIyLm4EE6_S_refERA4_Kym(ptr noundef nonnull align 8 dereferenceable(32) %6, i64 noundef %7) #15
  ret ptr %8
}

; Function Attrs: mustprogress nounwind uwtable
define linkonce_odr dso_local noundef nonnull align 8 dereferenceable(8) ptr @_ZNKSt5arrayIyLm4EEixEm(ptr noundef nonnull align 8 dereferenceable(32) %0, i64 noundef %1) #2 comdat align 2 {
  %3 = alloca ptr, align 8
  %4 = alloca i64, align 8
  store ptr %0, ptr %3, align 8
  store i64 %1, ptr %4, align 8
  %5 = load ptr, ptr %3, align 8
  %6 = getelementptr inbounds nuw %"struct.std::array", ptr %5, i32 0, i32 0
  %7 = load i64, ptr %4, align 8
  %8 = call noundef nonnull align 8 dereferenceable(8) ptr @_ZNSt14__array_traitsIyLm4EE6_S_refERA4_Kym(ptr noundef nonnull align 8 dereferenceable(32) %6, i64 noundef %7) #15
  ret ptr %8
}

; Function Attrs: inlinehint mustprogress uwtable
define linkonce_odr dso_local noundef zeroext i1 @_ZSteqIyLm4EEbRKSt5arrayIT_XT0_EES4_(ptr noundef nonnull align 8 dereferenceable(32) %0, ptr noundef nonnull align 8 dereferenceable(32) %1) #5 comdat {
  %3 = alloca ptr, align 8
  %4 = alloca ptr, align 8
  store ptr %0, ptr %3, align 8
  store ptr %1, ptr %4, align 8
  %5 = load ptr, ptr %3, align 8
  %6 = call noundef ptr @_ZNKSt5arrayIyLm4EE5beginEv(ptr noundef nonnull align 8 dereferenceable(32) %5) #15
  %7 = load ptr, ptr %3, align 8
  %8 = call noundef ptr @_ZNKSt5arrayIyLm4EE3endEv(ptr noundef nonnull align 8 dereferenceable(32) %7) #15
  %9 = load ptr, ptr %4, align 8
  %10 = call noundef ptr @_ZNKSt5arrayIyLm4EE5beginEv(ptr noundef nonnull align 8 dereferenceable(32) %9) #15
  %11 = call noundef zeroext i1 @_ZSt5equalIPKyS1_EbT_S2_T0_(ptr noundef %6, ptr noundef %8, ptr noundef %10)
  ret i1 %11
}

; Function Attrs: mustprogress nounwind uwtable
define linkonce_odr hidden void @_ZN3ue28bitfieldILm256EEaNERKS1_(ptr noundef nonnull align 8 dereferenceable(32) %0, ptr noundef nonnull align 8 dereferenceable(32) %1) #2 comdat align 2 {
  %3 = alloca ptr, align 8
  %4 = alloca ptr, align 8
  %5 = alloca i64, align 8
  store ptr %0, ptr %3, align 8
  store ptr %1, ptr %4, align 8
  %6 = load ptr, ptr %3, align 8
  call void @llvm.lifetime.start.p0(i64 8, ptr %5) #15
  store i64 0, ptr %5, align 8
  br label %7

7:                                                ; preds = %58, %2
  %8 = load i64, ptr %5, align 8
  %9 = add i64 %8, 4
  %10 = icmp ule i64 %9, 4
  br i1 %10, label %11, label %61

11:                                               ; preds = %7
  %12 = load ptr, ptr %4, align 8
  %13 = getelementptr inbounds nuw %"class.ue2::bitfield", ptr %12, i32 0, i32 0
  %14 = load i64, ptr %5, align 8
  %15 = call noundef nonnull align 8 dereferenceable(8) ptr @_ZNKSt5arrayIyLm4EEixEm(ptr noundef nonnull align 8 dereferenceable(32) %13, i64 noundef %14) #15
  %16 = load i64, ptr %15, align 8
  %17 = getelementptr inbounds nuw %"class.ue2::bitfield", ptr %6, i32 0, i32 0
  %18 = load i64, ptr %5, align 8
  %19 = call noundef nonnull align 8 dereferenceable(8) ptr @_ZNSt5arrayIyLm4EEixEm(ptr noundef nonnull align 8 dereferenceable(32) %17, i64 noundef %18) #15
  %20 = load i64, ptr %19, align 8
  %21 = and i64 %20, %16
  store i64 %21, ptr %19, align 8
  %22 = load ptr, ptr %4, align 8
  %23 = getelementptr inbounds nuw %"class.ue2::bitfield", ptr %22, i32 0, i32 0
  %24 = load i64, ptr %5, align 8
  %25 = add i64 %24, 1
  %26 = call noundef nonnull align 8 dereferenceable(8) ptr @_ZNKSt5arrayIyLm4EEixEm(ptr noundef nonnull align 8 dereferenceable(32) %23, i64 noundef %25) #15
  %27 = load i64, ptr %26, align 8
  %28 = getelementptr inbounds nuw %"class.ue2::bitfield", ptr %6, i32 0, i32 0
  %29 = load i64, ptr %5, align 8
  %30 = add i64 %29, 1
  %31 = call noundef nonnull align 8 dereferenceable(8) ptr @_ZNSt5arrayIyLm4EEixEm(ptr noundef nonnull align 8 dereferenceable(32) %28, i64 noundef %30) #15
  %32 = load i64, ptr %31, align 8
  %33 = and i64 %32, %27
  store i64 %33, ptr %31, align 8
  %34 = load ptr, ptr %4, align 8
  %35 = getelementptr inbounds nuw %"class.ue2::bitfield", ptr %34, i32 0, i32 0
  %36 = load i64, ptr %5, align 8
  %37 = add i64 %36, 2
  %38 = call noundef nonnull align 8 dereferenceable(8) ptr @_ZNKSt5arrayIyLm4EEixEm(ptr noundef nonnull align 8 dereferenceable(32) %35, i64 noundef %37) #15
  %39 = load i64, ptr %38, align 8
  %40 = getelementptr inbounds nuw %"class.ue2::bitfield", ptr %6, i32 0, i32 0
  %41 = load i64, ptr %5, align 8
  %42 = add i64 %41, 2
  %43 = call noundef nonnull align 8 dereferenceable(8) ptr @_ZNSt5arrayIyLm4EEixEm(ptr noundef nonnull align 8 dereferenceable(32) %40, i64 noundef %42) #15
  %44 = load i64, ptr %43, align 8
  %45 = and i64 %44, %39
  store i64 %45, ptr %43, align 8
  %46 = load ptr, ptr %4, align 8
  %47 = getelementptr inbounds nuw %"class.ue2::bitfield", ptr %46, i32 0, i32 0
  %48 = load i64, ptr %5, align 8
  %49 = add i64 %48, 3
  %50 = call noundef nonnull align 8 dereferenceable(8) ptr @_ZNKSt5arrayIyLm4EEixEm(ptr noundef nonnull align 8 dereferenceable(32) %47, i64 noundef %49) #15
  %51 = load i64, ptr %50, align 8
  %52 = getelementptr inbounds nuw %"class.ue2::bitfield", ptr %6, i32 0, i32 0
  %53 = load i64, ptr %5, align 8
  %54 = add i64 %53, 3
  %55 = call noundef nonnull align 8 dereferenceable(8) ptr @_ZNSt5arrayIyLm4EEixEm(ptr noundef nonnull align 8 dereferenceable(32) %52, i64 noundef %54) #15
  %56 = load i64, ptr %55, align 8
  %57 = and i64 %56, %51
  store i64 %57, ptr %55, align 8
  br label %58

58:                                               ; preds = %11
  %59 = load i64, ptr %5, align 8
  %60 = add i64 %59, 4
  store i64 %60, ptr %5, align 8
  br label %7, !llvm.loop !16

61:                                               ; preds = %7
  br label %62

62:                                               ; preds = %76, %61
  %63 = load i64, ptr %5, align 8
  %64 = icmp ult i64 %63, 4
  br i1 %64, label %65, label %79

65:                                               ; preds = %62
  %66 = load ptr, ptr %4, align 8
  %67 = getelementptr inbounds nuw %"class.ue2::bitfield", ptr %66, i32 0, i32 0
  %68 = load i64, ptr %5, align 8
  %69 = call noundef nonnull align 8 dereferenceable(8) ptr @_ZNKSt5arrayIyLm4EEixEm(ptr noundef nonnull align 8 dereferenceable(32) %67, i64 noundef %68) #15
  %70 = load i64, ptr %69, align 8
  %71 = getelementptr inbounds nuw %"class.ue2::bitfield", ptr %6, i32 0, i32 0
  %72 = load i64, ptr %5, align 8
  %73 = call noundef nonnull align 8 dereferenceable(8) ptr @_ZNSt5arrayIyLm4EEixEm(ptr noundef nonnull align 8 dereferenceable(32) %71, i64 noundef %72) #15
  %74 = load i64, ptr %73, align 8
  %75 = and i64 %74, %70
  store i64 %75, ptr %73, align 8
  br label %76

76:                                               ; preds = %65
  %77 = load i64, ptr %5, align 8
  %78 = add i64 %77, 1
  store i64 %78, ptr %5, align 8
  br label %62, !llvm.loop !17

79:                                               ; preds = %62
  call void @llvm.lifetime.end.p0(i64 8, ptr %5) #15
  ret void
}

; Function Attrs: mustprogress uwtable
define linkonce_odr hidden noundef zeroext i1 @_ZNK3ue28bitfieldILm256EEeqERKS1_(ptr noundef nonnull align 8 dereferenceable(32) %0, ptr noundef nonnull align 8 dereferenceable(32) %1) #0 comdat align 2 {
  %3 = alloca ptr, align 8
  %4 = alloca ptr, align 8
  store ptr %0, ptr %3, align 8
  store ptr %1, ptr %4, align 8
  %5 = load ptr, ptr %3, align 8
  %6 = getelementptr inbounds nuw %"class.ue2::bitfield", ptr %5, i32 0, i32 0
  %7 = load ptr, ptr %4, align 8
  %8 = getelementptr inbounds nuw %"class.ue2::bitfield", ptr %7, i32 0, i32 0
  %9 = call noundef zeroext i1 @_ZSteqIyLm4EEbRKSt5arrayIT_XT0_EES4_(ptr noundef nonnull align 8 dereferenceable(32) %6, ptr noundef nonnull align 8 dereferenceable(32) %8)
  ret i1 %9
}

; Function Attrs: mustprogress nounwind uwtable
define linkonce_odr hidden void @_ZNK3ue28bitfieldILm256EEanERKS1_(ptr dead_on_unwind noalias writable sret(%"class.ue2::bitfield") align 8 %0, ptr noundef nonnull align 8 dereferenceable(32) %1, ptr noundef nonnull align 8 dereferenceable(32) %2) #2 comdat align 2 {
  %4 = alloca ptr, align 8
  %5 = alloca ptr, align 8
  store ptr %1, ptr %4, align 8
  store ptr %2, ptr %5, align 8
  %6 = load ptr, ptr %4, align 8
  %7 = load ptr, ptr %5, align 8
  call void @llvm.memcpy.p0.p0.i64(ptr align 8 %0, ptr align 8 %7, i64 32, i1 false)
  call void @_ZN3ue28bitfieldILm256EEaNERKS1_(ptr noundef nonnull align 8 dereferenceable(32) %0, ptr noundef nonnull align 8 dereferenceable(32) %6)
  ret void
}

; Function Attrs: mustprogress uwtable
define hidden noundef zeroext i1 @_ZNK3ue29CharReach10isSubsetOfERKS0_(ptr noundef nonnull align 8 dereferenceable(32) %0, ptr noundef nonnull align 8 dereferenceable(32) %1) #0 align 2 {
  %3 = alloca ptr, align 8
  %4 = alloca ptr, align 8
  %5 = alloca %"class.ue2::bitfield", align 8
  store ptr %0, ptr %3, align 8
  store ptr %1, ptr %4, align 8
  %6 = load ptr, ptr %3, align 8
  call void @llvm.lifetime.start.p0(i64 32, ptr %5) #15
  %7 = getelementptr inbounds nuw %"class.ue2::CharReach", ptr %6, i32 0, i32 0
  %8 = load ptr, ptr %4, align 8
  %9 = getelementptr inbounds nuw %"class.ue2::CharReach", ptr %8, i32 0, i32 0
  call void @_ZNK3ue28bitfieldILm256EEanERKS1_(ptr dead_on_unwind writable sret(%"class.ue2::bitfield") align 8 %5, ptr noundef nonnull align 8 dereferenceable(32) %7, ptr noundef nonnull align 8 dereferenceable(32) %9)
  %10 = getelementptr inbounds nuw %"class.ue2::CharReach", ptr %6, i32 0, i32 0
  %11 = call noundef zeroext i1 @_ZNK3ue28bitfieldILm256EEeqERKS1_(ptr noundef nonnull align 8 dereferenceable(32) %5, ptr noundef nonnull align 8 dereferenceable(32) %10)
  call void @llvm.lifetime.end.p0(i64 32, ptr %5) #15
  ret i1 %11
}

; Function Attrs: mustprogress uwtable
define hidden noundef zeroext i1 @_ZN3ue210isSubsetOfERKNS_9CharReachES2_(ptr noundef nonnull align 8 dereferenceable(32) %0, ptr noundef nonnull align 8 dereferenceable(32) %1) #0 {
  %3 = alloca ptr, align 8
  %4 = alloca ptr, align 8
  store ptr %0, ptr %3, align 8
  store ptr %1, ptr %4, align 8
  %5 = load ptr, ptr %3, align 8
  %6 = load ptr, ptr %4, align 8
  %7 = call noundef zeroext i1 @_ZNK3ue29CharReach10isSubsetOfERKS0_(ptr noundef nonnull align 8 dereferenceable(32) %5, ptr noundef nonnull align 8 dereferenceable(32) %6)
  ret i1 %7
}